target datalayout = "e-m:e-p270:32:32-p271:32:32-p272:64:64-i64:64-i128:128-f80:128-n8:16:32:64-S128"
target triple = "x86_64-pc-linux-gnu"

%struct.df_history_t = type { i32, i8, ptr, ptr, float, ptr, ptr, ptr, ptr, ptr, ptr, ptr, ptr, ptr, ptr }

@.str = private unnamed_addr constant [20 x i8] c"dfhist->sum_weights\00", align 1
@.str.1 = private unnamed_addr constant [128 x i8] c"generated/home/dtcxzyw/WorkSpace/Projects/compilers/llvm-opt-benchmark/bench/gromacs/gromacs/src/gromacs/mdtypes/df_history.cpp\00", align 1
@.str.2 = private unnamed_addr constant [15 x i8] c"dfhist->sum_dg\00", align 1
@.str.3 = private unnamed_addr constant [19 x i8] c"dfhist->sum_minvar\00", align 1
@.str.4 = private unnamed_addr constant [21 x i8] c"dfhist->sum_variance\00", align 1
@.str.5 = private unnamed_addr constant [17 x i8] c"dfhist->n_at_lam\00", align 1
@.str.6 = private unnamed_addr constant [17 x i8] c"dfhist->wl_histo\00", align 1
@.str.7 = private unnamed_addr constant [12 x i8] c"dfhist->Tij\00", align 1
@.str.8 = private unnamed_addr constant [22 x i8] c"dfhist->Tij_empirical\00", align 1
@.str.9 = private unnamed_addr constant [16 x i8] c"dfhist->accum_p\00", align 1
@.str.10 = private unnamed_addr constant [16 x i8] c"dfhist->accum_m\00", align 1
@.str.11 = private unnamed_addr constant [17 x i8] c"dfhist->accum_p2\00", align 1
@.str.12 = private unnamed_addr constant [17 x i8] c"dfhist->accum_m2\00", align 1
@.str.13 = private unnamed_addr constant [15 x i8] c"dfhist->Tij[i]\00", align 1
@.str.14 = private unnamed_addr constant [25 x i8] c"dfhist->Tij_empirical[i]\00", align 1
@.str.15 = private unnamed_addr constant [21 x i8] c"(dfhist->accum_p)[i]\00", align 1
@.str.16 = private unnamed_addr constant [21 x i8] c"(dfhist->accum_m)[i]\00", align 1
@.str.17 = private unnamed_addr constant [22 x i8] c"(dfhist->accum_p2)[i]\00", align 1
@.str.18 = private unnamed_addr constant [22 x i8] c"(dfhist->accum_m2)[i]\00", align 1

; Function Attrs: mustprogress uwtable
define internal void @_ZL13gmx_snew_implIPfEvPKcS2_iRPT_m(ptr noundef %0, ptr noundef %1, i32 noundef %2, ptr noundef nonnull align 8 dereferenceable(8) %3, i64 noundef %4) #0 {
  %6 = alloca ptr, align 8
  %7 = alloca ptr, align 8
  %8 = alloca i32, align 4
  %9 = alloca ptr, align 8
  %10 = alloca i64, align 8
  store ptr %0, ptr %6, align 8
  store ptr %1, ptr %7, align 8
  store i32 %2, ptr %8, align 4
  store ptr %3, ptr %9, align 8
  store i64 %4, ptr %10, align 8
  %11 = load ptr, ptr %6, align 8
  %12 = load ptr, ptr %7, align 8
  %13 = load i32, ptr %8, align 4
  %14 = load i64, ptr %10, align 8
  %15 = call noundef ptr @_Z11save_callocPKcS0_imm(ptr noundef %11, ptr noundef %12, i32 noundef %13, i64 noundef %14, i64 noundef 8)
  %16 = load ptr, ptr %9, align 8
  store ptr %15, ptr %16, align 8
  ret void
}

; Function Attrs: mustprogress uwtable
define internal void @_ZL13gmx_snew_implIiEvPKcS1_iRPT_m(ptr noundef %0, ptr noundef %1, i32 noundef %2, ptr noundef nonnull align 8 dereferenceable(8) %3, i64 noundef %4) #0 {
  %6 = alloca ptr, align 8
  %7 = alloca ptr, align 8
  %8 = alloca i32, align 4
  %9 = alloca ptr, align 8
  %10 = alloca i64, align 8
  store ptr %0, ptr %6, align 8
  store ptr %1, ptr %7, align 8
  store i32 %2, ptr %8, align 4
  store ptr %3, ptr %9, align 8
  store i64 %4, ptr %10, align 8
  %11 = load ptr, ptr %6, align 8
  %12 = load ptr, ptr %7, align 8
  %13 = load i32, ptr %8, align 4
  %14 = load i64, ptr %10, align 8
  %15 = call noundef ptr @_Z11save_callocPKcS0_imm(ptr noundef %11, ptr noundef %12, i32 noundef %13, i64 noundef %14, i64 noundef 4)
  %16 = load ptr, ptr %9, align 8
  store ptr %15, ptr %16, align 8
  ret void
}

; Function Attrs: mustprogress uwtable
define internal void @_ZL13gmx_snew_implIfEvPKcS1_iRPT_m(ptr noundef %0, ptr noundef %1, i32 noundef %2, ptr noundef nonnull align 8 dereferenceable(8) %3, i64 noundef %4) #0 {
  %6 = alloca ptr, align 8
  %7 = alloca ptr, align 8
  %8 = alloca i32, align 4
  %9 = alloca ptr, align 8
  %10 = alloca i64, align 8
  store ptr %0, ptr %6, align 8
  store ptr %1, ptr %7, align 8
  store i32 %2, ptr %8, align 4
  store ptr %3, ptr %9, align 8
  store i64 %4, ptr %10, align 8
  %11 = load ptr, ptr %6, align 8
  %12 = load ptr, ptr %7, align 8
  %13 = load i32, ptr %8, align 4
  %14 = load i64, ptr %10, align 8
  %15 = call noundef ptr @_Z11save_callocPKcS0_imm(ptr noundef %11, ptr noundef %12, i32 noundef %13, i64 noundef %14, i64 noundef 4)
  %16 = load ptr, ptr %9, align 8
  store ptr %15, ptr %16, align 8
  ret void
}

; Function Attrs: mustprogress uwtable
define void @_Z15init_df_historyP12df_history_ti(ptr noundef %0, i32 noundef %1) #0 {
  %3 = alloca ptr, align 8
  %4 = alloca i32, align 4
  %5 = alloca i32, align 4
  store ptr %0, ptr %3, align 8
  store i32 %1, ptr %4, align 4
  %6 = load i32, ptr %4, align 4
  %7 = load ptr, ptr %3, align 8
  %8 = getelementptr inbounds %struct.df_history_t, ptr %7, i32 0, i32 0
  store i32 %6, ptr %8, align 8
  %9 = load ptr, ptr %3, align 8
  %10 = getelementptr inbounds %struct.df_history_t, ptr %9, i32 0, i32 1
  store i8 0, ptr %10, align 4
  %11 = load ptr, ptr %3, align 8
  %12 = getelementptr inbounds %struct.df_history_t, ptr %11, i32 0, i32 4
  store float 0.000000e+00, ptr %12, align 8
  %13 = load i32, ptr %4, align 4
  %14 = icmp sgt i32 %13, 0
  br i1 %14, label %15, label %159

15:                                               ; preds = %2
  %16 = load ptr, ptr %3, align 8
  %17 = getelementptr inbounds %struct.df_history_t, ptr %16, i32 0, i32 5
  %18 = load ptr, ptr %3, align 8
  %19 = getelementptr inbounds %struct.df_history_t, ptr %18, i32 0, i32 0
  %20 = load i32, ptr %19, align 8
  %21 = sext i32 %20 to i64
  call void @_ZL13gmx_snew_implIfEvPKcS1_iRPT_m(ptr noundef @.str, ptr noundef @.str.1, i32 noundef 52, ptr noundef nonnull align 8 dereferenceable(8) %17, i64 noundef %21)
  %22 = load ptr, ptr %3, align 8
  %23 = getelementptr inbounds %struct.df_history_t, ptr %22, i32 0, i32 6
  %24 = load ptr, ptr %3, align 8
  %25 = getelementptr inbounds %struct.df_history_t, ptr %24, i32 0, i32 0
  %26 = load i32, ptr %25, align 8
  %27 = sext i32 %26 to i64
  call void @_ZL13gmx_snew_implIfEvPKcS1_iRPT_m(ptr noundef @.str.2, ptr noundef @.str.1, i32 noundef 53, ptr noundef nonnull align 8 dereferenceable(8) %23, i64 noundef %27)
  %28 = load ptr, ptr %3, align 8
  %29 = getelementptr inbounds %struct.df_history_t, ptr %28, i32 0, i32 7
  %30 = load ptr, ptr %3, align 8
  %31 = getelementptr inbounds %struct.df_history_t, ptr %30, i32 0, i32 0
  %32 = load i32, ptr %31, align 8
  %33 = sext i32 %32 to i64
  call void @_ZL13gmx_snew_implIfEvPKcS1_iRPT_m(ptr noundef @.str.3, ptr noundef @.str.1, i32 noundef 54, ptr noundef nonnull align 8 dereferenceable(8) %29, i64 noundef %33)
  %34 = load ptr, ptr %3, align 8
  %35 = getelementptr inbounds %struct.df_history_t, ptr %34, i32 0, i32 8
  %36 = load ptr, ptr %3, align 8
  %37 = getelementptr inbounds %struct.df_history_t, ptr %36, i32 0, i32 0
  %38 = load i32, ptr %37, align 8
  %39 = sext i32 %38 to i64
  call void @_ZL13gmx_snew_implIfEvPKcS1_iRPT_m(ptr noundef @.str.4, ptr noundef @.str.1, i32 noundef 55, ptr noundef nonnull align 8 dereferenceable(8) %35, i64 noundef %39)
  %40 = load ptr, ptr %3, align 8
  %41 = getelementptr inbounds %struct.df_history_t, ptr %40, i32 0, i32 2
  %42 = load ptr, ptr %3, align 8
  %43 = getelementptr inbounds %struct.df_history_t, ptr %42, i32 0, i32 0
  %44 = load i32, ptr %43, align 8
  %45 = sext i32 %44 to i64
  call void @_ZL13gmx_snew_implIiEvPKcS1_iRPT_m(ptr noundef @.str.5, ptr noundef @.str.1, i32 noundef 56, ptr noundef nonnull align 8 dereferenceable(8) %41, i64 noundef %45)
  %46 = load ptr, ptr %3, align 8
  %47 = getelementptr inbounds %struct.df_history_t, ptr %46, i32 0, i32 3
  %48 = load ptr, ptr %3, align 8
  %49 = getelementptr inbounds %struct.df_history_t, ptr %48, i32 0, i32 0
  %50 = load i32, ptr %49, align 8
  %51 = sext i32 %50 to i64
  call void @_ZL13gmx_snew_implIfEvPKcS1_iRPT_m(ptr noundef @.str.6, ptr noundef @.str.1, i32 noundef 57, ptr noundef nonnull align 8 dereferenceable(8) %47, i64 noundef %51)
  %52 = load ptr, ptr %3, align 8
  %53 = getelementptr inbounds %struct.df_history_t, ptr %52, i32 0, i32 13
  %54 = load ptr, ptr %3, align 8
  %55 = getelementptr inbounds %struct.df_history_t, ptr %54, i32 0, i32 0
  %56 = load i32, ptr %55, align 8
  %57 = sext i32 %56 to i64
  call void @_ZL13gmx_snew_implIPfEvPKcS2_iRPT_m(ptr noundef @.str.7, ptr noundef @.str.1, i32 noundef 60, ptr noundef nonnull align 8 dereferenceable(8) %53, i64 noundef %57)
  %58 = load ptr, ptr %3, align 8
  %59 = getelementptr inbounds %struct.df_history_t, ptr %58, i32 0, i32 14
  %60 = load ptr, ptr %3, align 8
  %61 = getelementptr inbounds %struct.df_history_t, ptr %60, i32 0, i32 0
  %62 = load i32, ptr %61, align 8
  %63 = sext i32 %62 to i64
  call void @_ZL13gmx_snew_implIPfEvPKcS2_iRPT_m(ptr noundef @.str.8, ptr noundef @.str.1, i32 noundef 61, ptr noundef nonnull align 8 dereferenceable(8) %59, i64 noundef %63)
  %64 = load ptr, ptr %3, align 8
  %65 = getelementptr inbounds %struct.df_history_t, ptr %64, i32 0, i32 9
  %66 = load ptr, ptr %3, align 8
  %67 = getelementptr inbounds %struct.df_history_t, ptr %66, i32 0, i32 0
  %68 = load i32, ptr %67, align 8
  %69 = sext i32 %68 to i64
  call void @_ZL13gmx_snew_implIPfEvPKcS2_iRPT_m(ptr noundef @.str.9, ptr noundef @.str.1, i32 noundef 65, ptr noundef nonnull align 8 dereferenceable(8) %65, i64 noundef %69)
  %70 = load ptr, ptr %3, align 8
  %71 = getelementptr inbounds %struct.df_history_t, ptr %70, i32 0, i32 10
  %72 = load ptr, ptr %3, align 8
  %73 = getelementptr inbounds %struct.df_history_t, ptr %72, i32 0, i32 0
  %74 = load i32, ptr %73, align 8
  %75 = sext i32 %74 to i64
  call void @_ZL13gmx_snew_implIPfEvPKcS2_iRPT_m(ptr noundef @.str.10, ptr noundef @.str.1, i32 noundef 66, ptr noundef nonnull align 8 dereferenceable(8) %71, i64 noundef %75)
  %76 = load ptr, ptr %3, align 8
  %77 = getelementptr inbounds %struct.df_history_t, ptr %76, i32 0, i32 11
  %78 = load ptr, ptr %3, align 8
  %79 = getelementptr inbounds %struct.df_history_t, ptr %78, i32 0, i32 0
  %80 = load i32, ptr %79, align 8
  %81 = sext i32 %80 to i64
  call void @_ZL13gmx_snew_implIPfEvPKcS2_iRPT_m(ptr noundef @.str.11, ptr noundef @.str.1, i32 noundef 67, ptr noundef nonnull align 8 dereferenceable(8) %77, i64 noundef %81)
  %82 = load ptr, ptr %3, align 8
  %83 = getelementptr inbounds %struct.df_history_t, ptr %82, i32 0, i32 12
  %84 = load ptr, ptr %3, align 8
  %85 = getelementptr inbounds %struct.df_history_t, ptr %84, i32 0, i32 0
  %86 = load i32, ptr %85, align 8
  %87 = sext i32 %86 to i64
  call void @_ZL13gmx_snew_implIPfEvPKcS2_iRPT_m(ptr noundef @.str.12, ptr noundef @.str.1, i32 noundef 68, ptr noundef nonnull align 8 dereferenceable(8) %83, i64 noundef %87)
  store i32 0, ptr %5, align 4
  br label %88

88:                                               ; preds = %155, %15
  %89 = load i32, ptr %5, align 4
  %90 = load ptr, ptr %3, align 8
  %91 = getelementptr inbounds %struct.df_history_t, ptr %90, i32 0, i32 0
  %92 = load i32, ptr %91, align 8
  %93 = icmp slt i32 %89, %92
  br i1 %93, label %94, label %158

94:                                               ; preds = %88
  %95 = load ptr, ptr %3, align 8
  %96 = getelementptr inbounds %struct.df_history_t, ptr %95, i32 0, i32 13
  %97 = load ptr, ptr %96, align 8
  %98 = load i32, ptr %5, align 4
  %99 = sext i32 %98 to i64
  %100 = getelementptr inbounds ptr, ptr %97, i64 %99
  %101 = load ptr, ptr %3, align 8
  %102 = getelementptr inbounds %struct.df_history_t, ptr %101, i32 0, i32 0
  %103 = load i32, ptr %102, align 8
  %104 = sext i32 %103 to i64
  call void @_ZL13gmx_snew_implIfEvPKcS1_iRPT_m(ptr noundef @.str.13, ptr noundef @.str.1, i32 noundef 72, ptr noundef nonnull align 8 dereferenceable(8) %100, i64 noundef %104)
  %105 = load ptr, ptr %3, align 8
  %106 = getelementptr inbounds %struct.df_history_t, ptr %105, i32 0, i32 14
  %107 = load ptr, ptr %106, align 8
  %108 = load i32, ptr %5, align 4
  %109 = sext i32 %108 to i64
  %110 = getelementptr inbounds ptr, ptr %107, i64 %109
  %111 = load ptr, ptr %3, align 8
  %112 = getelementptr inbounds %struct.df_history_t, ptr %111, i32 0, i32 0
  %113 = load i32, ptr %112, align 8
  %114 = sext i32 %113 to i64
  call void @_ZL13gmx_snew_implIfEvPKcS1_iRPT_m(ptr noundef @.str.14, ptr noundef @.str.1, i32 noundef 73, ptr noundef nonnull align 8 dereferenceable(8) %110, i64 noundef %114)
  %115 = load ptr, ptr %3, align 8
  %116 = getelementptr inbounds %struct.df_history_t, ptr %115, i32 0, i32 9
  %117 = load ptr, ptr %116, align 8
  %118 = load i32, ptr %5, align 4
  %119 = sext i32 %118 to i64
  %120 = getelementptr inbounds ptr, ptr %117, i64 %119
  %121 = load ptr, ptr %3, align 8
  %122 = getelementptr inbounds %struct.df_history_t, ptr %121, i32 0, i32 0
  %123 = load i32, ptr %122, align 8
  %124 = sext i32 %123 to i64
  call void @_ZL13gmx_snew_implIfEvPKcS1_iRPT_m(ptr noundef @.str.15, ptr noundef @.str.1, i32 noundef 74, ptr noundef nonnull align 8 dereferenceable(8) %120, i64 noundef %124)
  %125 = load ptr, ptr %3, align 8
  %126 = getelementptr inbounds %struct.df_history_t, ptr %125, i32 0, i32 10
  %127 = load ptr, ptr %126, align 8
  %128 = load i32, ptr %5, align 4
  %129 = sext i32 %128 to i64
  %130 = getelementptr inbounds ptr, ptr %127, i64 %129
  %131 = load ptr, ptr %3, align 8
  %132 = getelementptr inbounds %struct.df_history_t, ptr %131, i32 0, i32 0
  %133 = load i32, ptr %132, align 8
  %134 = sext i32 %133 to i64
  call void @_ZL13gmx_snew_implIfEvPKcS1_iRPT_m(ptr noundef @.str.16, ptr noundef @.str.1, i32 noundef 75, ptr noundef nonnull align 8 dereferenceable(8) %130, i64 noundef %134)
  %135 = load ptr, ptr %3, align 8
  %136 = getelementptr inbounds %struct.df_history_t, ptr %135, i32 0, i32 11
  %137 = load ptr, ptr %136, align 8
  %138 = load i32, ptr %5, align 4
  %139 = sext i32 %138 to i64
  %140 = getelementptr inbounds ptr, ptr %137, i64 %139
  %141 = load ptr, ptr %3, align 8
  %142 = getelementptr inbounds %struct.df_history_t, ptr %141, i32 0, i32 0
  %143 = load i32, ptr %142, align 8
  %144 = sext i32 %143 to i64
  call void @_ZL13gmx_snew_implIfEvPKcS1_iRPT_m(ptr noundef @.str.17, ptr noundef @.str.1, i32 noundef 76, ptr noundef nonnull align 8 dereferenceable(8) %140, i64 noundef %144)
  %145 = load ptr, ptr %3, align 8
  %146 = getelementptr inbounds %struct.df_history_t, ptr %145, i32 0, i32 12
  %147 = load ptr, ptr %146, align 8
  %148 = load i32, ptr %5, align 4
  %149 = sext i32 %148 to i64
  %150 = getelementptr inbounds ptr, ptr %147, i64 %149
  %151 = load ptr, ptr %3, align 8
  %152 = getelementptr inbounds %struct.df_history_t, ptr %151, i32 0, i32 0
  %153 = load i32, ptr %152, align 8
  %154 = sext i32 %153 to i64
  call void @_ZL13gmx_snew_implIfEvPKcS1_iRPT_m(ptr noundef @.str.18, ptr noundef @.str.1, i32 noundef 77, ptr noundef nonnull align 8 dereferenceable(8) %150, i64 noundef %154)
  br label %155

155:                                              ; preds = %94
  %156 = load i32, ptr %5, align 4
  %157 = add nsw i32 %156, 1
  store i32 %157, ptr %5, align 4
  br label %88, !llvm.loop !5

158:                                              ; preds = %88
  br label %159

159:                                              ; preds = %158, %2
  ret void
}