; Function Attrs: mustprogress uwtable
define void @_Z15init_df_historyP12df_history_ti(ptr nocapture noundef %0, i32 noundef %1) local_unnamed_addr #0 {
  store i32 %1, ptr %0, align 8
  %3 = getelementptr inbounds i8, ptr %0, i64 4
  store i8 0, ptr %3, align 4
  %4 = getelementptr inbounds i8, ptr %0, i64 24
  store float 0.000000e+00, ptr %4, align 8
  %5 = icmp sgt i32 %1, 0
  br i1 %5, label %6, label %.loopexit

6:                                                ; preds = %2
  %7 = getelementptr inbounds i8, ptr %0, i64 32
  %8 = zext nneg i32 %1 to i64
  %9 = tail call noundef ptr @_Z11save_callocPKcS0_imm(ptr noundef nonnull @.str, ptr noundef nonnull @.str.1, i32 noundef 52, i64 noundef %8, i64 noundef 4)
  store ptr %9, ptr %7, align 8
  %10 = getelementptr inbounds i8, ptr %0, i64 40
  %11 = load i32, ptr %0, align 8
  %12 = sext i32 %11 to i64
  %13 = tail call noundef ptr @_Z11save_callocPKcS0_imm(ptr noundef nonnull @.str.2, ptr noundef nonnull @.str.1, i32 noundef 53, i64 noundef %12, i64 noundef 4)
  store ptr %13, ptr %10, align 8
  %14 = getelementptr inbounds i8, ptr %0, i64 48
  %15 = load i32, ptr %0, align 8
  %16 = sext i32 %15 to i64
  %17 = tail call noundef ptr @_Z11save_callocPKcS0_imm(ptr noundef nonnull @.str.3, ptr noundef nonnull @.str.1, i32 noundef 54, i64 noundef %16, i64 noundef 4)
  store ptr %17, ptr %14, align 8
  %18 = getelementptr inbounds i8, ptr %0, i64 56
  %19 = load i32, ptr %0, align 8
  %20 = sext i32 %19 to i64
  %21 = tail call noundef ptr @_Z11save_callocPKcS0_imm(ptr noundef nonnull @.str.4, ptr noundef nonnull @.str.1, i32 noundef 55, i64 noundef %20, i64 noundef 4)
  store ptr %21, ptr %18, align 8
  %22 = getelementptr inbounds i8, ptr %0, i64 8
  %23 = load i32, ptr %0, align 8
  %24 = sext i32 %23 to i64
  %25 = tail call noundef ptr @_Z11save_callocPKcS0_imm(ptr noundef nonnull @.str.5, ptr noundef nonnull @.str.1, i32 noundef 56, i64 noundef %24, i64 noundef 4)
  store ptr %25, ptr %22, align 8
  %26 = getelementptr inbounds i8, ptr %0, i64 16
  %27 = load i32, ptr %0, align 8
  %28 = sext i32 %27 to i64
  %29 = tail call noundef ptr @_Z11save_callocPKcS0_imm(ptr noundef nonnull @.str.6, ptr noundef nonnull @.str.1, i32 noundef 57, i64 noundef %28, i64 noundef 4)
  store ptr %29, ptr %26, align 8
  %30 = getelementptr inbounds i8, ptr %0, i64 96
  %31 = load i32, ptr %0, align 8
  %32 = sext i32 %31 to i64
  %33 = tail call noundef ptr @_Z11save_callocPKcS0_imm(ptr noundef nonnull @.str.7, ptr noundef nonnull @.str.1, i32 noundef 60, i64 noundef %32, i64 noundef 8)
  store ptr %33, ptr %30, align 8
  %34 = getelementptr inbounds i8, ptr %0, i64 104
  %35 = load i32, ptr %0, align 8
  %36 = sext i32 %35 to i64
  %37 = tail call noundef ptr @_Z11save_callocPKcS0_imm(ptr noundef nonnull @.str.8, ptr noundef nonnull @.str.1, i32 noundef 61, i64 noundef %36, i64 noundef 8)
  store ptr %37, ptr %34, align 8
  %38 = getelementptr inbounds i8, ptr %0, i64 64
  %39 = load i32, ptr %0, align 8
  %40 = sext i32 %39 to i64
  %41 = tail call noundef ptr @_Z11save_callocPKcS0_imm(ptr noundef nonnull @.str.9, ptr noundef nonnull @.str.1, i32 noundef 65, i64 noundef %40, i64 noundef 8)
  store ptr %41, ptr %38, align 8
  %42 = getelementptr inbounds i8, ptr %0, i64 72
  %43 = load i32, ptr %0, align 8
  %44 = sext i32 %43 to i64
  %45 = tail call noundef ptr @_Z11save_callocPKcS0_imm(ptr noundef nonnull @.str.10, ptr noundef nonnull @.str.1, i32 noundef 66, i64 noundef %44, i64 noundef 8)
  store ptr %45, ptr %42, align 8
  %46 = getelementptr inbounds i8, ptr %0, i64 80
  %47 = load i32, ptr %0, align 8
  %48 = sext i32 %47 to i64
  %49 = tail call noundef ptr @_Z11save_callocPKcS0_imm(ptr noundef nonnull @.str.11, ptr noundef nonnull @.str.1, i32 noundef 67, i64 noundef %48, i64 noundef 8)
  store ptr %49, ptr %46, align 8
  %50 = getelementptr inbounds i8, ptr %0, i64 88
  %51 = load i32, ptr %0, align 8
  %52 = sext i32 %51 to i64
  %53 = tail call noundef ptr @_Z11save_callocPKcS0_imm(ptr noundef nonnull @.str.12, ptr noundef nonnull @.str.1, i32 noundef 68, i64 noundef %52, i64 noundef 8)
  store ptr %53, ptr %50, align 8
  %54 = load i32, ptr %0, align 8
  %55 = icmp sgt i32 %54, 0
  br i1 %55, label %.lr.ph, label %.loopexit

.lr.ph:                                           ; preds = %6, %.lr.ph
  %indvars.iv = phi i64 [ %indvars.iv.next, %.lr.ph ], [ 0, %6 ]
  %56 = phi i32 [ %86, %.lr.ph ], [ %54, %6 ]
  %57 = load ptr, ptr %30, align 8
  %58 = getelementptr inbounds ptr, ptr %57, i64 %indvars.iv
  %59 = sext i32 %56 to i64
  %60 = tail call noundef ptr @_Z11save_callocPKcS0_imm(ptr noundef nonnull @.str.13, ptr noundef nonnull @.str.1, i32 noundef 72, i64 noundef %59, i64 noundef 4)
  store ptr %60, ptr %58, align 8
  %61 = load ptr, ptr %34, align 8
  %62 = getelementptr inbounds ptr, ptr %61, i64 %indvars.iv
  %63 = load i32, ptr %0, align 8
  %64 = sext i32 %63 to i64
  %65 = tail call noundef ptr @_Z11save_callocPKcS0_imm(ptr noundef nonnull @.str.14, ptr noundef nonnull @.str.1, i32 noundef 73, i64 noundef %64, i64 noundef 4)
  store ptr %65, ptr %62, align 8
  %66 = load ptr, ptr %38, align 8
  %67 = getelementptr inbounds ptr, ptr %66, i64 %indvars.iv
  %68 = load i32, ptr %0, align 8
  %69 = sext i32 %68 to i64
  %70 = tail call noundef ptr @_Z11save_callocPKcS0_imm(ptr noundef nonnull @.str.15, ptr noundef nonnull @.str.1, i32 noundef 74, i64 noundef %69, i64 noundef 4)
  store ptr %70, ptr %67, align 8
  %71 = load ptr, ptr %42, align 8
  %72 = getelementptr inbounds ptr, ptr %71, i64 %indvars.iv
  %73 = load i32, ptr %0, align 8
  %74 = sext i32 %73 to i64
  %75 = tail call noundef ptr @_Z11save_callocPKcS0_imm(ptr noundef nonnull @.str.16, ptr noundef nonnull @.str.1, i32 noundef 75, i64 noundef %74, i64 noundef 4)
  store ptr %75, ptr %72, align 8
  %76 = load ptr, ptr %46, align 8
  %77 = getelementptr inbounds ptr, ptr %76, i64 %indvars.iv
  %78 = load i32, ptr %0, align 8
  %79 = sext i32 %78 to i64
  %80 = tail call noundef ptr @_Z11save_callocPKcS0_imm(ptr noundef nonnull @.str.17, ptr noundef nonnull @.str.1, i32 noundef 76, i64 noundef %79, i64 noundef 4)
  store ptr %80, ptr %77, align 8
  %81 = load ptr, ptr %50, align 8
  %82 = getelementptr inbounds ptr, ptr %81, i64 %indvars.iv
  %83 = load i32, ptr %0, align 8
  %84 = sext i32 %83 to i64
  %85 = tail call noundef ptr @_Z11save_callocPKcS0_imm(ptr noundef nonnull @.str.18, ptr noundef nonnull @.str.1, i32 noundef 77, i64 noundef %84, i64 noundef 4)
  store ptr %85, ptr %82, align 8
  %indvars.iv.next = add nuw nsw i64 %indvars.iv, 1
  %86 = load i32, ptr %0, align 8
  %87 = sext i32 %86 to i64
  %88 = icmp slt i64 %indvars.iv.next, %87
  br i1 %88, label %.lr.ph, label %.loopexit, !llvm.loop !5

.loopexit:                                        ; preds = %.lr.ph, %6, %2
  ret void
}